target datalayout = "e-m:e-p270:32:32-p271:32:32-p272:64:64-i64:64-i128:128-f80:128-n8:16:32:64-S128"
target triple = "x86_64-pc-linux-gnu"

@.str = private unnamed_addr constant [116 x i8] c"generated/home/dtcxzyw/WorkSpace/Projects/compilers/llvm-opt-benchmark/bench/libquic/libquic/boringssl/ssl/d1_pkt.c\00", align 1

; Function Attrs: nounwind uwtable
define hidden i32 @dtls1_write_bytes(ptr noundef %0, i32 noundef %1, ptr noundef %2, i32 noundef %3, i32 noundef %4) #0 {
  %6 = alloca ptr, align 8
  %7 = alloca i32, align 4
  %8 = alloca ptr, align 8
  %9 = alloca i32, align 4
  %10 = alloca i32, align 4
  store ptr %0, ptr %6, align 8, !tbaa !6
  store i32 %1, ptr %7, align 4, !tbaa !13
  store ptr %2, ptr %8, align 8, !tbaa !15
  store i32 %3, ptr %9, align 4, !tbaa !13
  store i32 %4, ptr %10, align 4, !tbaa !13
  %11 = load ptr, ptr %6, align 8, !tbaa !6
  %12 = load i32, ptr %7, align 4, !tbaa !13
  %13 = load ptr, ptr %8, align 8, !tbaa !15
  %14 = load i32, ptr %9, align 4, !tbaa !13
  %15 = load i32, ptr %10, align 4, !tbaa !13
  %16 = call i32 @do_dtls1_write(ptr noundef %11, i32 noundef %12, ptr noundef %13, i32 noundef %14, i32 noundef %15)
  ret i32 %16
}

; Function Attrs: nounwind uwtable
define hidden i32 @dtls1_write_app_data(ptr noundef %0, ptr noundef %1, i32 noundef %2) #0 {
  %4 = alloca i32, align 4
  %5 = alloca ptr, align 8
  %6 = alloca ptr, align 8
  %7 = alloca i32, align 4
  store ptr %0, ptr %5, align 8, !tbaa !6
  store ptr %1, ptr %6, align 8, !tbaa !15
  store i32 %2, ptr %7, align 4, !tbaa !13
  %8 = load i32, ptr %7, align 4, !tbaa !13
  %9 = icmp sgt i32 %8, 16384
  br i1 %9, label %10, label %11

10:                                               ; preds = %3
  call void @ERR_put_error(i32 noundef 16, i32 noundef 0, i32 noundef 143, ptr noundef @.str, i32 noundef 448)
  store i32 -1, ptr %4, align 4
  br label %16

11:                                               ; preds = %3
  %12 = load ptr, ptr %5, align 8, !tbaa !6
  %13 = load ptr, ptr %6, align 8, !tbaa !15
  %14 = load i32, ptr %7, align 4, !tbaa !13
  %15 = call i32 @dtls1_write_bytes(ptr noundef %12, i32 noundef 23, ptr noundef %13, i32 noundef %14, i32 noundef 1)
  store i32 %15, ptr %4, align 4
  br label %16

16:                                               ; preds = %11, %10
  %17 = load i32, ptr %4, align 4
  ret i32 %17
}