; Function Attrs: nounwind uwtable
define hidden i32 @dtls1_write_app_data(ptr noundef %0, ptr noundef %1, i32 noundef %2) local_unnamed_addr #0 {
  %4 = icmp sgt i32 %2, 16384
  br i1 %4, label %5, label %6

5:                                                ; preds = %3
  tail call void @ERR_put_error(i32 noundef 16, i32 noundef 0, i32 noundef 143, ptr noundef nonnull @.str, i32 noundef 448) #6
  br label %8

6:                                                ; preds = %3
  %7 = tail call fastcc i32 @do_dtls1_write(ptr noundef %0, i32 noundef 23, ptr noundef %1, i32 noundef %2, i32 noundef 1)
  br label %8

8:                                                ; preds = %6, %5
  %.0 = phi i32 [ -1, %5 ], [ %7, %6 ]
  ret i32 %.0
}